	.file	"mutex.c"
	.intel_syntax noprefix
	.text
.Ltext0:
	.p2align 4,,15
	.globl	incers
	.type	incers, @function
incers:
.LFB12:
	.file 1 "mutex.c"
	.loc 1 77 0
	.cfi_startproc
.LVL0:
	add	DWORD PTR protected[rip], 1000
	.loc 1 87 0
	ret
	.cfi_endproc
.LFE12:
	.size	incers, .-incers
	.p2align 4,,15
	.globl	compare_and_swap
	.type	compare_and_swap, @function
compare_and_swap:
.LFB8:
	.loc 1 16 0
	.cfi_startproc
.LVL1:
	.loc 1 17 0
	mov	DWORD PTR [rdi], edx
	.loc 1 19 0
	mov	eax, 1
	ret
	.cfi_endproc
.LFE8:
	.size	compare_and_swap, .-compare_and_swap
	.p2align 4,,15
	.globl	lock
	.type	lock, @function
lock:
.LFB9:
	.loc 1 22 0
	.cfi_startproc
.LVL2:
	push	rbx
	.cfi_def_cfa_offset 16
	.cfi_offset 3, -16
	mov	eax, DWORD PTR [rdi]
	.loc 1 22 0
	mov	rbx, rdi
.LVL3:
	.p2align 4,,10
	.p2align 3
.L4:
	.loc 1 32 0
	test	eax, eax
	jne	.L5
.LVL4:
.LBB7:
.LBB8:
	.loc 1 17 0
	mov	DWORD PTR [rbx], 1
.LVL5:
.L8:
.LBE8:
.LBE7:
.LBB9:
.LBB10:
.LBB11:
	mov	DWORD PTR [rbx], 2
.LBE11:
.LBE10:
.LBE9:
	.loc 1 44 0
	pop	rbx
	.cfi_remember_state
	.cfi_def_cfa_offset 8
.LVL6:
	ret
.LVL7:
	.p2align 4,,10
	.p2align 3
.L5:
	.cfi_restore_state
	.loc 1 36 0
	cmp	eax, 1
	je	.L8
	.loc 1 41 0
	mov	edi, 1
	call	sleep
.LVL8:
	mov	eax, DWORD PTR [rbx]
	jmp	.L4
	.cfi_endproc
.LFE9:
	.size	lock, .-lock
	.p2align 4,,15
	.globl	faulty_lock
	.type	faulty_lock, @function
faulty_lock:
.LFB10:
	.loc 1 53 0
	.cfi_startproc
.LVL9:
	push	rbx
	.cfi_def_cfa_offset 16
	.cfi_offset 3, -16
	mov	eax, DWORD PTR [rdi]
	.loc 1 53 0
	mov	rbx, rdi
.LVL10:
	.p2align 4,,10
	.p2align 3
.L13:
	.loc 1 57 0
	test	eax, eax
	jne	.L14
	.loc 1 57 0 is_stmt 0 discriminator 1
	mov	DWORD PTR [rbx], 1
.L17:
	.loc 1 60 0 is_stmt 1
	mov	DWORD PTR [rbx], 2
	.loc 1 66 0
	pop	rbx
	.cfi_remember_state
	.cfi_def_cfa_offset 8
.LVL11:
	ret
.LVL12:
	.p2align 4,,10
	.p2align 3
.L14:
	.cfi_restore_state
	.loc 1 58 0
	cmp	eax, 1
	je	.L17
	.loc 1 63 0
	mov	edi, 1
	call	sleep
.LVL13:
	mov	eax, DWORD PTR [rbx]
	jmp	.L13
	.cfi_endproc
.LFE10:
	.size	faulty_lock, .-faulty_lock
	.section	.rodata.str1.1,"aMS",@progbits,1
.LC0:
	.string	"mutex.c"
.LC1:
	.string	"0"
	.text
	.p2align 4,,15
	.globl	unlock
	.type	unlock, @function
unlock:
.LFB11:
	.loc 1 71 0
	.cfi_startproc
.LVL14:
	.loc 1 72 0
	cmp	DWORD PTR [rdi], 2
	jne	.L21
	.loc 1 72 0 discriminator 1
	mov	DWORD PTR [rdi], 0
	ret
.L21:
	.loc 1 71 0
	push	rax
	.cfi_def_cfa_offset 16
	.loc 1 73 0
	mov	ecx, OFFSET FLAT:__PRETTY_FUNCTION__.2914
	mov	edx, 73
	mov	esi, OFFSET FLAT:.LC0
	mov	edi, OFFSET FLAT:.LC1
.LVL15:
	call	__assert_fail
.LVL16:
	.cfi_endproc
.LFE11:
	.size	unlock, .-unlock
	.section	.rodata.str1.8,"aMS",@progbits,1
	.align 8
.LC3:
	.string	"Total: %d, Failed: %d, Correct: %d, Percent Success: %f\n"
	.text
	.p2align 4,,15
	.globl	print_stats
	.type	print_stats, @function
print_stats:
.LFB13:
	.loc 1 96 0
	.cfi_startproc
.LVL17:
	mov	rsi, rdi
	.loc 1 97 0
	cvtsi2sd	xmm0, edi
	sar	rsi, 32
.LVL18:
	mov	ecx, edi
	mov	eax, 1
	cvtsi2ss	xmm1, esi
	mov	edx, esi
	sub	edx, edi
	mov	edi, OFFSET FLAT:.LC3
.LVL19:
	mulsd	xmm0, QWORD PTR .LC2[rip]
	unpcklps	xmm1, xmm1
	cvtps2pd	xmm1, xmm1
	divsd	xmm0, xmm1
	jmp	printf
.LVL20:
	.cfi_endproc
.LFE13:
	.size	print_stats, .-print_stats
	.section	.rodata.str1.8
	.align 8
.LC4:
	.string	"Iteration: %d, Check Failed!: protected (%d) != NUM_THREADS*INC_COUNT (%d)\n"
	.section	.text.startup,"ax",@progbits
	.p2align 4,,15
	.globl	main
	.type	main, @function
main:
.LFB14:
	.loc 1 102 0
	.cfi_startproc
.LVL21:
	push	rbp
	.cfi_def_cfa_offset 16
	.cfi_offset 6, -16
	.loc 1 105 0
	xor	esi, esi
	mov	edi, OFFSET FLAT:global
	.loc 1 102 0
	mov	rbp, rsp
	.cfi_def_cfa_register 6
	push	r15
	.cfi_offset 15, -24
	.loc 1 103 0
	xor	r15d, r15d
	.loc 1 102 0
	push	r14
	push	r13
	.cfi_offset 14, -32
	.cfi_offset 13, -40
.LBB12:
	.loc 1 107 0
	xor	r13d, r13d
.LBE12:
	.loc 1 102 0
	push	r12
	push	rbx
	sub	rsp, 8
	.cfi_offset 12, -48
	.cfi_offset 3, -56
	.loc 1 105 0
	call	pthread_mutex_init
.LVL22:
	.p2align 4,,10
	.p2align 3
.L33:
.LBB18:
.LBB13:
	mov	r14, rsp
	.loc 1 111 0
	sub	rsp, 96
	.loc 1 108 0
	mov	DWORD PTR global_lock[rip], 0
	.loc 1 109 0
	mov	DWORD PTR protected[rip], 0
.LVL23:
	.loc 1 111 0
	mov	r12, rsp
.LVL24:
	xor	ebx, ebx
.LVL25:
	.p2align 4,,10
	.p2align 3
.L27:
	lea	rdi, [r12+rbx]
.LBB14:
	.loc 1 113 0 discriminator 2
	xor	ecx, ecx
	xor	esi, esi
	mov	edx, OFFSET FLAT:incers
	add	rbx, 8
	call	pthread_create
.LVL26:
	cmp	rbx, 80
	jne	.L27
	.loc 1 113 0 is_stmt 0
	xor	bl, bl
	.p2align 4,,10
	.p2align 3
.L29:
.LBE14:
.LBB15:
	.loc 1 115 0 is_stmt 1 discriminator 2
	mov	rdi, QWORD PTR [r12+rbx]
	xor	esi, esi
	add	rbx, 8
	call	pthread_join
.LVL27:
	cmp	rbx, 80
	jne	.L29
.LBE15:
	.loc 1 117 0
	mov	edx, DWORD PTR protected[rip]
	cmp	edx, 10000
	je	.L30
	.loc 1 118 0
	mov	ecx, 10000
	mov	esi, r13d
	mov	edi, OFFSET FLAT:.LC4
	xor	eax, eax
	call	printf
.LVL28:
.L31:
.LBE13:
	.loc 1 107 0
	add	r13d, 1
.LVL29:
.LBB16:
	mov	rsp, r14
.LVL30:
.LBE16:
	cmp	r13d, 10000
	jne	.L33
.LBE18:
	.loc 1 124 0
	movabs	rax, 42949672960000
	mov	edi, r15d
	or	rdi, rax
	call	print_stats
.LVL31:
	.loc 1 126 0
	xor	edi, edi
	call	pthread_exit
.LVL32:
	.p2align 4,,10
	.p2align 3
.L30:
.LBB19:
.LBB17:
	.loc 1 120 0
	add	r15d, 1
.LVL33:
	jmp	.L31
.LBE17:
.LBE19:
	.cfi_endproc
.LFE14:
	.size	main, .-main
	.section	.rodata
	.type	__PRETTY_FUNCTION__.2914, @object
	.size	__PRETTY_FUNCTION__.2914, 7
__PRETTY_FUNCTION__.2914:
	.string	"unlock"
	.comm	global,40,32
	.globl	INC_COUNT
	.align 4
	.type	INC_COUNT, @object
	.size	INC_COUNT, 4
INC_COUNT:
	.long	1000
	.globl	NUM_THREADS
	.align 4
	.type	NUM_THREADS, @object
	.size	NUM_THREADS, 4
NUM_THREADS:
	.long	10
	.comm	global_lock,4,4
	.globl	protected
	.bss
	.align 16
	.type	protected, @object
	.size	protected, 4
protected:
	.zero	4
	.globl	SLEEP_INTERVAL
	.section	.rodata
	.align 4
	.type	SLEEP_INTERVAL, @object
	.size	SLEEP_INTERVAL, 4
SLEEP_INTERVAL:
	.long	1
	.section	.rodata.cst8,"aM",@progbits,8
	.align 8
.LC2:
	.long	0
	.long	1079574528
	.text
.Letext0:
	.file 2 "/usr/include/bits/types.h"
	.file 3 "/usr/lib/gcc/x86_64-redhat-linux/4.8.5/include/stddef.h"
	.file 4 "/usr/include/bits/pthreadtypes.h"
	.file 5 "/usr/include/libio.h"
	.file 6 "/usr/include/stdio.h"
	.file 7 "/usr/include/unistd.h"
	.file 8 "/usr/include/pthread.h"
	.file 9 "/usr/include/assert.h"
	.section	.note.GNU-stack,"",@progbits
